; Function Attrs: mustprogress uwtable
define dso_local void @_ZN5vcpkg9to_stringB5cxx11ENS_12DownloadToolE(ptr dead_on_unwind noalias writable sret(%"class.std::__cxx11::basic_string") align 8 %0, i32 noundef %1) local_unnamed_addr #2 {
  %3 = alloca %"struct.vcpkg::LineInfo", align 8
  %4 = alloca %"struct.vcpkg::StringLiteral", align 8
  call void @llvm.lifetime.start.p0(i64 16, ptr nonnull %3)
  switch i32 %1, label %6 [
    i32 0, label %_ZN5vcpkg14to_string_viewENS_12DownloadToolE.exit
    i32 1, label %5
  ]

5:                                                ; preds = %2
  br label %_ZN5vcpkg14to_string_viewENS_12DownloadToolE.exit

6:                                                ; preds = %2
  store i32 255, ptr %3, align 8
  %7 = getelementptr inbounds i8, ptr %3, i64 8
  store ptr @.str, ptr %7, align 8
  call void @_ZN5vcpkg6Checks11unreachableERKNS_8LineInfoE(ptr noundef nonnull align 8 dereferenceable(16) %3) #24
  unreachable

_ZN5vcpkg14to_string_viewENS_12DownloadToolE.exit: ; preds = %2, %5
  %.sroa.3.0.i = phi i64 [ 5, %5 ], [ 8, %2 ]
  %.sroa.0.0.i = phi ptr [ @.str.4, %5 ], [ @.str.3, %2 ]
  call void @llvm.lifetime.end.p0(i64 16, ptr nonnull %3)
  store ptr %.sroa.0.0.i, ptr %4, align 8
  %8 = getelementptr inbounds i8, ptr %4, i64 8
  store i64 %.sroa.3.0.i, ptr %8, align 8
  call void @_ZNK5vcpkg10StringView9to_stringB5cxx11Ev(ptr dead_on_unwind writable sret(%"class.std::__cxx11::basic_string") align 8 %0, ptr noundef nonnull align 8 dereferenceable(16) %4)
  ret void
}